target datalayout = "e-m:e-p270:32:32-p271:32:32-p272:64:64-i64:64-i128:128-f80:128-n8:16:32:64-S128"
target triple = "x86_64-pc-linux-gnu"

%struct.Dch_Man_t_ = type { ptr, ptr, ptr, ptr, ptr, ptr, i32, ptr, ptr, i32, i32, ptr, ptr, ptr, i32, i32, i32, i32, i32, i32, i32, i32, i32, i32, i32, i64, i64, i64, i64, i64, i64, i64, i64, i64 }
%struct.Vec_Ptr_t_ = type { i32, i32, ptr }
%struct.Dch_Pars_t_ = type { i32, i32, i32, i32, i32, i32, i32, i32, i32, i32, i32, i32, i32, i32, i64, i32, i32 }

; Function Attrs: inlinehint nounwind uwtable
define internal void @Vec_PtrFree(ptr noundef %0) #6 {
  %2 = alloca ptr, align 8
  store ptr %0, ptr %2, align 8, !tbaa !39
  %3 = load ptr, ptr %2, align 8, !tbaa !39
  %4 = getelementptr inbounds nuw %struct.Vec_Ptr_t_, ptr %3, i32 0, i32 2
  %5 = load ptr, ptr %4, align 8, !tbaa !43
  %6 = icmp ne ptr %5, null
  br i1 %6, label %7, label %13

7:                                                ; preds = %1
  %8 = load ptr, ptr %2, align 8, !tbaa !39
  %9 = getelementptr inbounds nuw %struct.Vec_Ptr_t_, ptr %8, i32 0, i32 2
  %10 = load ptr, ptr %9, align 8, !tbaa !43
  call void @free(ptr noundef %10) #10
  %11 = load ptr, ptr %2, align 8, !tbaa !39
  %12 = getelementptr inbounds nuw %struct.Vec_Ptr_t_, ptr %11, i32 0, i32 2
  store ptr null, ptr %12, align 8, !tbaa !43
  br label %14

13:                                               ; preds = %1
  br label %14

14:                                               ; preds = %13, %7
  %15 = load ptr, ptr %2, align 8, !tbaa !39
  %16 = icmp ne ptr %15, null
  br i1 %16, label %17, label %19

17:                                               ; preds = %14
  %18 = load ptr, ptr %2, align 8, !tbaa !39
  call void @free(ptr noundef %18) #10
  store ptr null, ptr %2, align 8, !tbaa !39
  br label %20

19:                                               ; preds = %14
  br label %20

20:                                               ; preds = %19, %17
  ret void
}

; Function Attrs: nounwind uwtable
define void @Dch_ManStop(ptr noundef %0) #0 {
  %2 = alloca ptr, align 8
  store ptr %0, ptr %2, align 8, !tbaa !10
  %3 = load ptr, ptr %2, align 8, !tbaa !10
  %4 = getelementptr inbounds nuw %struct.Dch_Man_t_, ptr %3, i32 0, i32 1
  %5 = load ptr, ptr %4, align 8, !tbaa !21
  call void @Aig_ManFanoutStop(ptr noundef %5)
  %6 = load ptr, ptr %2, align 8, !tbaa !10
  %7 = getelementptr inbounds nuw %struct.Dch_Man_t_, ptr %6, i32 0, i32 0
  %8 = load ptr, ptr %7, align 8, !tbaa !12
  %9 = getelementptr inbounds nuw %struct.Dch_Pars_t_, ptr %8, i32 0, i32 13
  %10 = load i32, ptr %9, align 4, !tbaa !71
  %11 = icmp ne i32 %10, 0
  br i1 %11, label %12, label %14

12:                                               ; preds = %1
  %13 = load ptr, ptr %2, align 8, !tbaa !10
  call void @Dch_ManPrintStats(ptr noundef %13)
  br label %14

14:                                               ; preds = %12, %1
  %15 = load ptr, ptr %2, align 8, !tbaa !10
  %16 = getelementptr inbounds nuw %struct.Dch_Man_t_, ptr %15, i32 0, i32 2
  %17 = load ptr, ptr %16, align 8, !tbaa !72
  %18 = icmp ne ptr %17, null
  br i1 %18, label %19, label %23

19:                                               ; preds = %14
  %20 = load ptr, ptr %2, align 8, !tbaa !10
  %21 = getelementptr inbounds nuw %struct.Dch_Man_t_, ptr %20, i32 0, i32 2
  %22 = load ptr, ptr %21, align 8, !tbaa !72
  call void @Aig_ManStop(ptr noundef %22)
  br label %23

23:                                               ; preds = %19, %14
  %24 = load ptr, ptr %2, align 8, !tbaa !10
  %25 = getelementptr inbounds nuw %struct.Dch_Man_t_, ptr %24, i32 0, i32 3
  %26 = load ptr, ptr %25, align 8, !tbaa !73
  %27 = icmp ne ptr %26, null
  br i1 %27, label %28, label %32

28:                                               ; preds = %23
  %29 = load ptr, ptr %2, align 8, !tbaa !10
  %30 = getelementptr inbounds nuw %struct.Dch_Man_t_, ptr %29, i32 0, i32 3
  %31 = load ptr, ptr %30, align 8, !tbaa !73
  call void @Dch_ClassesStop(ptr noundef %31)
  br label %32

32:                                               ; preds = %28, %23
  %33 = load ptr, ptr %2, align 8, !tbaa !10
  %34 = getelementptr inbounds nuw %struct.Dch_Man_t_, ptr %33, i32 0, i32 5
  %35 = load ptr, ptr %34, align 8, !tbaa !74
  %36 = icmp ne ptr %35, null
  br i1 %36, label %37, label %41

37:                                               ; preds = %32
  %38 = load ptr, ptr %2, align 8, !tbaa !10
  %39 = getelementptr inbounds nuw %struct.Dch_Man_t_, ptr %38, i32 0, i32 5
  %40 = load ptr, ptr %39, align 8, !tbaa !74
  call void @sat_solver_delete(ptr noundef %40)
  br label %41

41:                                               ; preds = %37, %32
  %42 = load ptr, ptr %2, align 8, !tbaa !10
  %43 = getelementptr inbounds nuw %struct.Dch_Man_t_, ptr %42, i32 0, i32 8
  %44 = load ptr, ptr %43, align 8, !tbaa !24
  call void @Vec_PtrFree(ptr noundef %44)
  %45 = load ptr, ptr %2, align 8, !tbaa !10
  %46 = getelementptr inbounds nuw %struct.Dch_Man_t_, ptr %45, i32 0, i32 11
  %47 = load ptr, ptr %46, align 8, !tbaa !25
  call void @Vec_PtrFree(ptr noundef %47)
  %48 = load ptr, ptr %2, align 8, !tbaa !10
  %49 = getelementptr inbounds nuw %struct.Dch_Man_t_, ptr %48, i32 0, i32 12
  %50 = load ptr, ptr %49, align 8, !tbaa !26
  call void @Vec_PtrFree(ptr noundef %50)
  %51 = load ptr, ptr %2, align 8, !tbaa !10
  %52 = getelementptr inbounds nuw %struct.Dch_Man_t_, ptr %51, i32 0, i32 13
  %53 = load ptr, ptr %52, align 8, !tbaa !27
  call void @Vec_PtrFree(ptr noundef %53)
  %54 = load ptr, ptr %2, align 8, !tbaa !10
  %55 = getelementptr inbounds nuw %struct.Dch_Man_t_, ptr %54, i32 0, i32 4
  %56 = load ptr, ptr %55, align 8, !tbaa !28
  %57 = icmp ne ptr %56, null
  br i1 %57, label %58, label %64

58:                                               ; preds = %41
  %59 = load ptr, ptr %2, align 8, !tbaa !10
  %60 = getelementptr inbounds nuw %struct.Dch_Man_t_, ptr %59, i32 0, i32 4
  %61 = load ptr, ptr %60, align 8, !tbaa !28
  call void @free(ptr noundef %61) #10
  %62 = load ptr, ptr %2, align 8, !tbaa !10
  %63 = getelementptr inbounds nuw %struct.Dch_Man_t_, ptr %62, i32 0, i32 4
  store ptr null, ptr %63, align 8, !tbaa !28
  br label %65

64:                                               ; preds = %41
  br label %65

65:                                               ; preds = %64, %58
  %66 = load ptr, ptr %2, align 8, !tbaa !10
  %67 = getelementptr inbounds nuw %struct.Dch_Man_t_, ptr %66, i32 0, i32 7
  %68 = load ptr, ptr %67, align 8, !tbaa !23
  %69 = icmp ne ptr %68, null
  br i1 %69, label %70, label %76

70:                                               ; preds = %65
  %71 = load ptr, ptr %2, align 8, !tbaa !10
  %72 = getelementptr inbounds nuw %struct.Dch_Man_t_, ptr %71, i32 0, i32 7
  %73 = load ptr, ptr %72, align 8, !tbaa !23
  call void @free(ptr noundef %73) #10
  %74 = load ptr, ptr %2, align 8, !tbaa !10
  %75 = getelementptr inbounds nuw %struct.Dch_Man_t_, ptr %74, i32 0, i32 7
  store ptr null, ptr %75, align 8, !tbaa !23
  br label %77

76:                                               ; preds = %65
  br label %77

77:                                               ; preds = %76, %70
  %78 = load ptr, ptr %2, align 8, !tbaa !10
  %79 = icmp ne ptr %78, null
  br i1 %79, label %80, label %82

80:                                               ; preds = %77
  %81 = load ptr, ptr %2, align 8, !tbaa !10
  call void @free(ptr noundef %81) #10
  store ptr null, ptr %2, align 8, !tbaa !10
  br label %83

82:                                               ; preds = %77
  br label %83

83:                                               ; preds = %82, %80
  ret void
}