; Function Attrs: nounwind uwtable
define void @Dch_ManStop(ptr noundef captures(none) %0) local_unnamed_addr #0 {
  %2 = getelementptr inbounds nuw i8, ptr %0, i64 8
  %3 = load ptr, ptr %2, align 8, !tbaa !17
  tail call void @Aig_ManFanoutStop(ptr noundef %3) #10
  %4 = load ptr, ptr %0, align 8, !tbaa !3
  %5 = getelementptr inbounds nuw i8, ptr %4, i64 52
  %6 = load i32, ptr %5, align 4, !tbaa !67
  %.not = icmp eq i32 %6, 0
  br i1 %.not, label %8, label %7

7:                                                ; preds = %1
  tail call void @Dch_ManPrintStats(ptr noundef nonnull %0)
  br label %8

8:                                                ; preds = %7, %1
  %9 = getelementptr inbounds nuw i8, ptr %0, i64 16
  %10 = load ptr, ptr %9, align 8, !tbaa !68
  %.not25 = icmp eq ptr %10, null
  br i1 %.not25, label %12, label %11

11:                                               ; preds = %8
  tail call void @Aig_ManStop(ptr noundef nonnull %10) #10
  br label %12

12:                                               ; preds = %11, %8
  %13 = getelementptr inbounds nuw i8, ptr %0, i64 24
  %14 = load ptr, ptr %13, align 8, !tbaa !69
  %.not26 = icmp eq ptr %14, null
  br i1 %.not26, label %16, label %15

15:                                               ; preds = %12
  tail call void @Dch_ClassesStop(ptr noundef nonnull %14) #10
  br label %16

16:                                               ; preds = %15, %12
  %17 = getelementptr inbounds nuw i8, ptr %0, i64 40
  %18 = load ptr, ptr %17, align 8, !tbaa !70
  %.not27 = icmp eq ptr %18, null
  br i1 %.not27, label %20, label %19

19:                                               ; preds = %16
  tail call void @sat_solver_delete(ptr noundef nonnull %18) #10
  br label %20

20:                                               ; preds = %19, %16
  %21 = getelementptr inbounds nuw i8, ptr %0, i64 64
  %22 = load ptr, ptr %21, align 8, !tbaa !33
  %23 = getelementptr inbounds nuw i8, ptr %22, i64 8
  %24 = load ptr, ptr %23, align 8, !tbaa !32
  %.not.i = icmp eq ptr %24, null
  br i1 %.not.i, label %Vec_PtrFree.exit, label %25

25:                                               ; preds = %20
  tail call void @free(ptr noundef nonnull %24) #10
  br label %Vec_PtrFree.exit

Vec_PtrFree.exit:                                 ; preds = %20, %25
  tail call void @free(ptr noundef nonnull %22) #10
  %26 = getelementptr inbounds nuw i8, ptr %0, i64 80
  %27 = load ptr, ptr %26, align 8, !tbaa !34
  %28 = getelementptr inbounds nuw i8, ptr %27, i64 8
  %29 = load ptr, ptr %28, align 8, !tbaa !32
  %.not.i30 = icmp eq ptr %29, null
  br i1 %.not.i30, label %Vec_PtrFree.exit31, label %30

30:                                               ; preds = %Vec_PtrFree.exit
  tail call void @free(ptr noundef nonnull %29) #10
  br label %Vec_PtrFree.exit31

Vec_PtrFree.exit31:                               ; preds = %Vec_PtrFree.exit, %30
  tail call void @free(ptr noundef nonnull %27) #10
  %31 = getelementptr inbounds nuw i8, ptr %0, i64 88
  %32 = load ptr, ptr %31, align 8, !tbaa !35
  %33 = getelementptr inbounds nuw i8, ptr %32, i64 8
  %34 = load ptr, ptr %33, align 8, !tbaa !32
  %.not.i32 = icmp eq ptr %34, null
  br i1 %.not.i32, label %Vec_PtrFree.exit33, label %35

35:                                               ; preds = %Vec_PtrFree.exit31
  tail call void @free(ptr noundef nonnull %34) #10
  br label %Vec_PtrFree.exit33

Vec_PtrFree.exit33:                               ; preds = %Vec_PtrFree.exit31, %35
  tail call void @free(ptr noundef nonnull %32) #10
  %36 = getelementptr inbounds nuw i8, ptr %0, i64 96
  %37 = load ptr, ptr %36, align 8, !tbaa !36
  %38 = getelementptr inbounds nuw i8, ptr %37, i64 8
  %39 = load ptr, ptr %38, align 8, !tbaa !32
  %.not.i34 = icmp eq ptr %39, null
  br i1 %.not.i34, label %Vec_PtrFree.exit35, label %40

40:                                               ; preds = %Vec_PtrFree.exit33
  tail call void @free(ptr noundef nonnull %39) #10
  br label %Vec_PtrFree.exit35

Vec_PtrFree.exit35:                               ; preds = %Vec_PtrFree.exit33, %40
  tail call void @free(ptr noundef nonnull %37) #10
  %41 = getelementptr inbounds nuw i8, ptr %0, i64 32
  %42 = load ptr, ptr %41, align 8, !tbaa !37
  %.not28 = icmp eq ptr %42, null
  br i1 %.not28, label %44, label %43

43:                                               ; preds = %Vec_PtrFree.exit35
  tail call void @free(ptr noundef nonnull %42) #10
  store ptr null, ptr %41, align 8, !tbaa !37
  br label %44

44:                                               ; preds = %Vec_PtrFree.exit35, %43
  %45 = getelementptr inbounds nuw i8, ptr %0, i64 56
  %46 = load ptr, ptr %45, align 8, !tbaa !30
  %.not29 = icmp eq ptr %46, null
  br i1 %.not29, label %48, label %47

47:                                               ; preds = %44
  tail call void @free(ptr noundef nonnull %46) #10
  br label %48

48:                                               ; preds = %47, %44
  tail call void @free(ptr noundef nonnull %0) #10
  ret void
}